target datalayout = "e-m:e-p270:32:32-p271:32:32-p272:64:64-i64:64-i128:128-f80:128-n8:16:32:64-S128"
target triple = "x86_64-pc-linux-gnu"

%class.QVariant = type { %"struct.QVariant::Private" }
%"struct.QVariant::Private" = type <{ %"union.QVariant::Private::Data", i32, [4 x i8] }>
%"union.QVariant::Private::Data" = type { i64 }

@_ZN26MLRenderingPointsDotActionC1EiP7QObject = unnamed_addr alias void (ptr, i32, ptr), ptr @_ZN26MLRenderingPointsDotActionC2EiP7QObject

; Function Attrs: mustprogress uwtable
define noundef i32 @_ZNK17MLRenderingAction6meshIdEv(ptr noundef nonnull align 8 dereferenceable(16) %0) #5 align 2 personality ptr @__gxx_personality_v0 {
  %2 = alloca ptr, align 8
  %3 = alloca i8, align 1
  %4 = alloca %class.QVariant, align 8
  %5 = alloca ptr, align 8
  %6 = alloca i32, align 4
  store ptr %0, ptr %2, align 8
  %7 = load ptr, ptr %2, align 8
  store i8 0, ptr %3, align 1
  call void @_ZNK7QAction4dataEv(ptr dead_on_unwind writable sret(%class.QVariant) align 8 %4, ptr noundef nonnull align 8 dereferenceable(16) %7)
  %8 = invoke noundef i32 @_ZNK8QVariant5toIntEPb(ptr noundef nonnull align 8 dereferenceable(16) %4, ptr noundef %3)
          to label %9 unwind label %10

9:                                                ; preds = %1
  call void @_ZN8QVariantD1Ev(ptr noundef nonnull align 8 dereferenceable(16) %4) #3
  ret i32 %8

10:                                               ; preds = %1
  %11 = landingpad { ptr, i32 }
          cleanup
  %12 = extractvalue { ptr, i32 } %11, 0
  store ptr %12, ptr %5, align 8
  %13 = extractvalue { ptr, i32 } %11, 1
  store i32 %13, ptr %6, align 4
  call void @_ZN8QVariantD1Ev(ptr noundef nonnull align 8 dereferenceable(16) %4) #3
  br label %14

14:                                               ; preds = %10
  %15 = load ptr, ptr %5, align 8
  %16 = load i32, ptr %6, align 4
  %17 = insertvalue { ptr, i32 } poison, ptr %15, 0
  %18 = insertvalue { ptr, i32 } %17, i32 %16, 1
  resume { ptr, i32 } %18
}

; Function Attrs: mustprogress uwtable
define void @_ZN26MLRenderingPointsDotAction18createSisterActionERP17MLRenderingActionP7QObject(ptr noundef nonnull align 8 dereferenceable(16) %0, ptr noundef nonnull align 8 dereferenceable(8) %1, ptr noundef %2) unnamed_addr #5 align 2 personality ptr @__gxx_personality_v0 {
  %4 = alloca ptr, align 8
  %5 = alloca ptr, align 8
  %6 = alloca ptr, align 8
  %7 = alloca ptr, align 8
  %8 = alloca i32, align 4
  store ptr %0, ptr %4, align 8
  store ptr %1, ptr %5, align 8
  store ptr %2, ptr %6, align 8
  %9 = load ptr, ptr %4, align 8
  %10 = call noalias noundef nonnull ptr @_Znwm(i64 noundef 16) #15
  %11 = invoke noundef i32 @_ZNK17MLRenderingAction6meshIdEv(ptr noundef nonnull align 8 dereferenceable(16) %9)
          to label %12 unwind label %16

12:                                               ; preds = %3
  %13 = load ptr, ptr %6, align 8
  invoke void @_ZN26MLRenderingPointsDotActionC1EiP7QObject(ptr noundef nonnull align 8 dereferenceable(16) %10, i32 noundef %11, ptr noundef %13)
          to label %14 unwind label %16

14:                                               ; preds = %12
  %15 = load ptr, ptr %5, align 8
  store ptr %10, ptr %15, align 8
  ret void

16:                                               ; preds = %12, %3
  %17 = landingpad { ptr, i32 }
          cleanup
  %18 = extractvalue { ptr, i32 } %17, 0
  store ptr %18, ptr %7, align 8
  %19 = extractvalue { ptr, i32 } %17, 1
  store i32 %19, ptr %8, align 4
  call void @_ZdlPv(ptr noundef %10) #16
  br label %20

20:                                               ; preds = %16
  %21 = load ptr, ptr %7, align 8
  %22 = load i32, ptr %8, align 4
  %23 = insertvalue { ptr, i32 } poison, ptr %21, 0
  %24 = insertvalue { ptr, i32 } %23, i32 %22, 1
  resume { ptr, i32 } %24
}